target datalayout = "e-m:e-p270:32:32-p271:32:32-p272:64:64-i64:64-i128:128-f80:128-n8:16:32:64-S128"
target triple = "x86_64-pc-linux-gnu"

%"class.std::basic_string_view" = type { i64, ptr }
%"class.std::__cxx11::basic_string" = type { %"struct.std::__cxx11::basic_string<char>::_Alloc_hider", i64, %union.anon }
%"struct.std::__cxx11::basic_string<char>::_Alloc_hider" = type { ptr }
%union.anon = type { i64, [8 x i8] }
%"class.absl::base_internal::ScopedSetEnv" = type <{ %"class.std::__cxx11::basic_string", %"class.std::__cxx11::basic_string", i8, [7 x i8] }>

@__const._ZN12_GLOBAL__N_146ParseTest_TestReadingRequiredFlagsFromEnv_Test8TestBodyEv.in_args1 = private unnamed_addr constant [2 x ptr] [ptr @.str.350, ptr @.str.554], align 16
@.str.555 = private unnamed_addr constant [15 x i8] c"FLAGS_int_flag\00", align 1
@.str.556 = private unnamed_addr constant [3 x i8] c"33\00", align 1
@.str.557 = private unnamed_addr constant [16 x i8] c"FLAGS_bool_flag\00", align 1
@.str.558 = private unnamed_addr constant [5 x i8] c"True\00", align 1
@.str.559 = private unnamed_addr constant [18 x i8] c"FLAGS_string_flag\00", align 1
@.str.560 = private unnamed_addr constant [5 x i8] c"AQ12\00", align 1

; Function Attrs: noinline noreturn nounwind uwtable
define linkonce_odr hidden void @__clang_call_terminate(ptr noundef %0) #11 comdat {
  %2 = call ptr @__cxa_begin_catch(ptr %0) #3
  call void @_ZSt9terminatev() #26
  unreachable
}

; Function Attrs: mustprogress nounwind uwtable
define linkonce_odr dso_local noundef i64 @_ZNSt11char_traitsIcE6lengthEPKc(ptr noundef %0) #6 comdat align 2 {
  %2 = alloca ptr, align 8
  store ptr %0, ptr %2, align 8, !tbaa !17
  %3 = load ptr, ptr %2, align 8, !tbaa !17
  %4 = call i64 @strlen(ptr noundef %3) #3
  ret i64 %4
}

; Function Attrs: mustprogress nounwind uwtable
define linkonce_odr dso_local void @_ZNSt17basic_string_viewIcSt11char_traitsIcEEC2EPKc(ptr noundef nonnull align 8 dereferenceable(16) %0, ptr noundef nonnull %1) unnamed_addr #6 comdat align 2 personality ptr @__gxx_personality_v0 {
  %3 = alloca ptr, align 8
  %4 = alloca ptr, align 8
  store ptr %0, ptr %3, align 8, !tbaa !172
  store ptr %1, ptr %4, align 8, !tbaa !17
  %5 = load ptr, ptr %3, align 8
  %6 = getelementptr inbounds nuw %"class.std::basic_string_view", ptr %5, i32 0, i32 0
  %7 = load ptr, ptr %4, align 8, !tbaa !17
  %8 = invoke noundef i64 @_ZNSt11char_traitsIcE6lengthEPKc(ptr noundef %7)
          to label %9 unwind label %12

9:                                                ; preds = %2
  store i64 %8, ptr %6, align 8, !tbaa !174
  %10 = getelementptr inbounds nuw %"class.std::basic_string_view", ptr %5, i32 0, i32 1
  %11 = load ptr, ptr %4, align 8, !tbaa !17
  store ptr %11, ptr %10, align 8, !tbaa !176
  ret void

12:                                               ; preds = %2
  %13 = landingpad { ptr, i32 }
          catch ptr null
  %14 = extractvalue { ptr, i32 } %13, 0
  call void @__clang_call_terminate(ptr %14) #26
  unreachable
}

; Function Attrs: mustprogress uwtable
define internal void @_ZN12_GLOBAL__N_146ParseTest_TestReadingRequiredFlagsFromEnv_Test8TestBodyEv(ptr noundef nonnull align 8 dereferenceable(24) %0) unnamed_addr #4 align 2 personality ptr @__gxx_personality_v0 {
  %2 = alloca ptr, align 8
  %3 = alloca [2 x ptr], align 16
  %4 = alloca %"class.absl::base_internal::ScopedSetEnv", align 8
  %5 = alloca %"class.absl::base_internal::ScopedSetEnv", align 8
  %6 = alloca ptr, align 8
  %7 = alloca i32, align 4
  %8 = alloca %"class.absl::base_internal::ScopedSetEnv", align 8
  %9 = alloca %"class.std::basic_string_view", align 8
  store ptr %0, ptr %2, align 8, !tbaa !736
  call void @llvm.lifetime.start.p0(i64 16, ptr %3) #3
  call void @llvm.memcpy.p0.p0.i64(ptr align 16 %3, ptr align 16 @__const._ZN12_GLOBAL__N_146ParseTest_TestReadingRequiredFlagsFromEnv_Test8TestBodyEv.in_args1, i64 16, i1 false)
  call void @llvm.lifetime.start.p0(i64 72, ptr %4) #3
  call void @_ZN4absl13base_internal12ScopedSetEnvC1EPKcS3_(ptr noundef nonnull align 8 dereferenceable(65) %4, ptr noundef @.str.555, ptr noundef @.str.556)
  call void @llvm.lifetime.start.p0(i64 72, ptr %5) #3
  invoke void @_ZN4absl13base_internal12ScopedSetEnvC1EPKcS3_(ptr noundef nonnull align 8 dereferenceable(65) %5, ptr noundef @.str.557, ptr noundef @.str.558)
          to label %10 unwind label %17

10:                                               ; preds = %1
  call void @llvm.lifetime.start.p0(i64 72, ptr %8) #3
  invoke void @_ZN4absl13base_internal12ScopedSetEnvC1EPKcS3_(ptr noundef nonnull align 8 dereferenceable(65) %8, ptr noundef @.str.559, ptr noundef @.str.560)
          to label %11 unwind label %21

11:                                               ; preds = %10
  call void @_ZNSt17basic_string_viewIcSt11char_traitsIcEEC2EPKc(ptr noundef nonnull align 8 dereferenceable(16) %9, ptr noundef @.str.560) #3
  %12 = getelementptr inbounds nuw { i64, ptr }, ptr %9, i32 0, i32 0
  %13 = load i64, ptr %12, align 8
  %14 = getelementptr inbounds nuw { i64, ptr }, ptr %9, i32 0, i32 1
  %15 = load ptr, ptr %14, align 8
  invoke void @_ZN12_GLOBAL__N_19TestParseILi2EEEvRAT__PKcidSt17basic_string_viewIcSt11char_traitsIcEEbi(ptr noundef nonnull align 8 dereferenceable(16) %3, i32 noundef 33, double noundef 1.100000e+00, i64 %13, ptr %15, i1 noundef zeroext true, i32 noundef 0)
          to label %16 unwind label %25

16:                                               ; preds = %11
  call void @_ZN4absl13base_internal12ScopedSetEnvD1Ev(ptr noundef nonnull align 8 dereferenceable(65) %8) #3
  call void @llvm.lifetime.end.p0(i64 72, ptr %8) #3
  call void @_ZN4absl13base_internal12ScopedSetEnvD1Ev(ptr noundef nonnull align 8 dereferenceable(65) %5) #3
  call void @llvm.lifetime.end.p0(i64 72, ptr %5) #3
  call void @_ZN4absl13base_internal12ScopedSetEnvD1Ev(ptr noundef nonnull align 8 dereferenceable(65) %4) #3
  call void @llvm.lifetime.end.p0(i64 72, ptr %4) #3
  call void @llvm.lifetime.end.p0(i64 16, ptr %3) #3
  ret void

17:                                               ; preds = %1
  %18 = landingpad { ptr, i32 }
          cleanup
  %19 = extractvalue { ptr, i32 } %18, 0
  store ptr %19, ptr %6, align 8
  %20 = extractvalue { ptr, i32 } %18, 1
  store i32 %20, ptr %7, align 4
  br label %30

21:                                               ; preds = %10
  %22 = landingpad { ptr, i32 }
          cleanup
  %23 = extractvalue { ptr, i32 } %22, 0
  store ptr %23, ptr %6, align 8
  %24 = extractvalue { ptr, i32 } %22, 1
  store i32 %24, ptr %7, align 4
  br label %29

25:                                               ; preds = %11
  %26 = landingpad { ptr, i32 }
          cleanup
  %27 = extractvalue { ptr, i32 } %26, 0
  store ptr %27, ptr %6, align 8
  %28 = extractvalue { ptr, i32 } %26, 1
  store i32 %28, ptr %7, align 4
  call void @_ZN4absl13base_internal12ScopedSetEnvD1Ev(ptr noundef nonnull align 8 dereferenceable(65) %8) #3
  br label %29

29:                                               ; preds = %25, %21
  call void @llvm.lifetime.end.p0(i64 72, ptr %8) #3
  call void @_ZN4absl13base_internal12ScopedSetEnvD1Ev(ptr noundef nonnull align 8 dereferenceable(65) %5) #3
  br label %30

30:                                               ; preds = %29, %17
  call void @llvm.lifetime.end.p0(i64 72, ptr %5) #3
  call void @_ZN4absl13base_internal12ScopedSetEnvD1Ev(ptr noundef nonnull align 8 dereferenceable(65) %4) #3
  call void @llvm.lifetime.end.p0(i64 72, ptr %4) #3
  call void @llvm.lifetime.end.p0(i64 16, ptr %3) #3
  br label %31

31:                                               ; preds = %30
  %32 = load ptr, ptr %6, align 8
  %33 = load i32, ptr %7, align 4
  %34 = insertvalue { ptr, i32 } poison, ptr %32, 0
  %35 = insertvalue { ptr, i32 } %34, i32 %33, 1
  resume { ptr, i32 } %35
}