; Function Attrs: mustprogress uwtable
define internal void @_ZN12_GLOBAL__N_146ParseTest_TestReadingRequiredFlagsFromEnv_Test8TestBodyEv(ptr nonnull readnone align 8 captures(none) %0) unnamed_addr #3 align 2 personality ptr @__gxx_personality_v0 {
  %2 = alloca [2 x ptr], align 16
  %3 = alloca %"class.absl::base_internal::ScopedSetEnv", align 8
  %4 = alloca %"class.absl::base_internal::ScopedSetEnv", align 8
  %5 = alloca %"class.absl::base_internal::ScopedSetEnv", align 8
  call void @llvm.lifetime.start.p0(i64 16, ptr nonnull %2) #33
  call void @llvm.memcpy.p0.p0.i64(ptr noundef nonnull align 16 dereferenceable(16) %2, ptr noundef nonnull align 16 dereferenceable(16) @__const._ZN12_GLOBAL__N_146ParseTest_TestReadingRequiredFlagsFromEnv_Test8TestBodyEv.in_args1, i64 16, i1 false)
  call void @llvm.lifetime.start.p0(i64 72, ptr nonnull %3) #33
  call void @_ZN4absl13base_internal12ScopedSetEnvC1EPKcS3_(ptr noundef nonnull align 8 dereferenceable(65) %3, ptr noundef nonnull @.str.555, ptr noundef nonnull @.str.556)
  call void @llvm.lifetime.start.p0(i64 72, ptr nonnull %4) #33
  invoke void @_ZN4absl13base_internal12ScopedSetEnvC1EPKcS3_(ptr noundef nonnull align 8 dereferenceable(65) %4, ptr noundef nonnull @.str.557, ptr noundef nonnull @.str.558)
          to label %6 unwind label %9

6:                                                ; preds = %1
  call void @llvm.lifetime.start.p0(i64 72, ptr nonnull %5) #33
  invoke void @_ZN4absl13base_internal12ScopedSetEnvC1EPKcS3_(ptr noundef nonnull align 8 dereferenceable(65) %5, ptr noundef nonnull @.str.559, ptr noundef nonnull @.str.560)
          to label %7 unwind label %11

7:                                                ; preds = %6
  invoke fastcc void @_ZN12_GLOBAL__N_19TestParseILi2EEEvRAT__PKcidSt17basic_string_viewIcSt11char_traitsIcEEbi(ptr noundef nonnull align 8 dereferenceable(16) %2, i32 noundef 33, double noundef 1.100000e+00, i64 4, ptr nonnull @.str.560, i1 noundef zeroext true)
          to label %8 unwind label %13

8:                                                ; preds = %7
  call void @_ZN4absl13base_internal12ScopedSetEnvD1Ev(ptr noundef nonnull align 8 dereferenceable(65) %5) #33
  call void @llvm.lifetime.end.p0(i64 72, ptr nonnull %5) #33
  call void @_ZN4absl13base_internal12ScopedSetEnvD1Ev(ptr noundef nonnull align 8 dereferenceable(65) %4) #33
  call void @llvm.lifetime.end.p0(i64 72, ptr nonnull %4) #33
  call void @_ZN4absl13base_internal12ScopedSetEnvD1Ev(ptr noundef nonnull align 8 dereferenceable(65) %3) #33
  call void @llvm.lifetime.end.p0(i64 72, ptr nonnull %3) #33
  call void @llvm.lifetime.end.p0(i64 16, ptr nonnull %2) #33
  ret void

9:                                                ; preds = %1
  %10 = landingpad { ptr, i32 }
          cleanup
  br label %16

11:                                               ; preds = %6
  %12 = landingpad { ptr, i32 }
          cleanup
  br label %15

13:                                               ; preds = %7
  %14 = landingpad { ptr, i32 }
          cleanup
  call void @_ZN4absl13base_internal12ScopedSetEnvD1Ev(ptr noundef nonnull align 8 dereferenceable(65) %5) #33
  br label %15

15:                                               ; preds = %13, %11
  %.pn = phi { ptr, i32 } [ %14, %13 ], [ %12, %11 ]
  call void @llvm.lifetime.end.p0(i64 72, ptr nonnull %5) #33
  call void @_ZN4absl13base_internal12ScopedSetEnvD1Ev(ptr noundef nonnull align 8 dereferenceable(65) %4) #33
  br label %16

16:                                               ; preds = %15, %9
  %.pn.pn = phi { ptr, i32 } [ %.pn, %15 ], [ %10, %9 ]
  call void @llvm.lifetime.end.p0(i64 72, ptr nonnull %4) #33
  call void @_ZN4absl13base_internal12ScopedSetEnvD1Ev(ptr noundef nonnull align 8 dereferenceable(65) %3) #33
  call void @llvm.lifetime.end.p0(i64 72, ptr nonnull %3) #33
  call void @llvm.lifetime.end.p0(i64 16, ptr nonnull %2) #33
  resume { ptr, i32 } %.pn.pn
}